; Function Attrs: nounwind uwtable
define internal void @array_subscript_fetch_old(ptr readnone captures(none) %0, ptr noundef readonly captures(none) %1, ptr readnone captures(none) %2) #1 {
  %4 = getelementptr inbounds nuw i8, ptr %1, i64 32
  %5 = load ptr, ptr %4, align 8
  %6 = getelementptr inbounds nuw i8, ptr %1, i64 16
  %7 = load ptr, ptr %6, align 8
  %8 = load i8, ptr %7, align 1, !range !4, !noundef !5
  %9 = trunc nuw i8 %8 to i1
  br i1 %9, label %10, label %12

10:                                               ; preds = %3
  %11 = getelementptr inbounds nuw i8, ptr %5, i64 104
  store i8 1, ptr %11, align 8
  br label %34

12:                                               ; preds = %3
  %13 = getelementptr inbounds nuw i8, ptr %5, i64 8
  %14 = load ptr, ptr %13, align 8
  %15 = getelementptr inbounds nuw i8, ptr %1, i64 8
  %16 = load ptr, ptr %15, align 8
  %17 = load i64, ptr %16, align 8
  %18 = getelementptr inbounds nuw i8, ptr %5, i64 16
  %19 = load i32, ptr %18, align 8
  %20 = getelementptr inbounds nuw i8, ptr %14, i64 12
  %21 = getelementptr inbounds nuw i8, ptr %14, i64 4
  %22 = load i16, ptr %21, align 4
  %23 = sext i16 %22 to i32
  %24 = getelementptr inbounds nuw i8, ptr %14, i64 6
  %25 = load i16, ptr %24, align 2
  %26 = sext i16 %25 to i32
  %27 = getelementptr inbounds nuw i8, ptr %14, i64 8
  %28 = load i8, ptr %27, align 4, !range !4, !noundef !5
  %29 = trunc nuw i8 %28 to i1
  %30 = getelementptr inbounds nuw i8, ptr %14, i64 9
  %31 = load i8, ptr %30, align 1
  %32 = getelementptr inbounds nuw i8, ptr %5, i64 104
  %33 = tail call i64 @array_get_element(i64 noundef %17, i32 noundef %19, ptr noundef nonnull %20, i32 noundef %23, i32 noundef %26, i1 noundef zeroext %29, i8 noundef signext %31, ptr noundef nonnull %32) #7
  br label %34

34:                                               ; preds = %12, %10
  %.sink = phi i64 [ 0, %10 ], [ %33, %12 ]
  %35 = getelementptr inbounds nuw i8, ptr %5, i64 96
  store i64 %.sink, ptr %35, align 8
  ret void
}